target datalayout = "e-m:e-p270:32:32-p271:32:32-p272:64:64-i64:64-i128:128-f80:128-n8:16:32:64-S128"
target triple = "x86_64-pc-linux-gnu"

%struct.pm_lex_mode = type { i32, %union.anon, ptr }
%union.anon = type { %struct.anon.3 }
%struct.anon.3 = type { %struct.pm_heredoc_lex_mode_t, ptr, ptr, i8 }
%struct.pm_heredoc_lex_mode_t = type { ptr, i64, i32, i32 }
%struct.pm_encoding_t = type { ptr, ptr, ptr, ptr, ptr, i8 }
%struct.pm_parser = type { i32, i32, i32, i32, i32, i32, i32, %struct.anon, ptr, ptr, %struct.pm_token_t, %struct.pm_token_t, ptr, ptr, %struct.pm_list_t, %struct.pm_list_t, %struct.pm_location_t, %struct.pm_list_t, %struct.pm_list_t, ptr, ptr, ptr, ptr, ptr, ptr, ptr, %struct.pm_string_t, %struct.pm_constant_pool_t, %struct.pm_newline_list_t, i16, %struct.pm_string_t, i32, ptr, ptr, i32, i8, i8, i8, i8, i8, i8, i8, i8, i8, i8, i8, i8, i8 }
%struct.anon = type { ptr, [4 x %struct.pm_lex_mode], i64 }
%struct.pm_token_t = type { i32, ptr, ptr }
%struct.pm_location_t = type { ptr, ptr }
%struct.pm_list_t = type { i64, ptr, ptr }
%struct.pm_constant_pool_t = type { ptr, ptr, i32, i32 }
%struct.pm_newline_list_t = type { ptr, i64, i64, ptr }
%struct.pm_string_t = type { ptr, i64, i32 }
%struct.pm_options = type { ptr, ptr, %struct.pm_string_t, i32, %struct.pm_string_t, i64, ptr, i32, i8, i8, i8, i8, i8, i8 }

@pm_encodings = external constant [90 x %struct.pm_encoding_t], align 16
@.str.15 = private unnamed_addr constant [3 x i8] c" -\00", align 1

; Function Attrs: nounwind sspstrong uwtable
define internal zeroext i1 @parser_lex_magic_comment_encoding_value(ptr noundef %0, ptr noundef %1, ptr noundef %2) #0 {
  %4 = alloca i1, align 1
  %5 = alloca ptr, align 8
  %6 = alloca ptr, align 8
  %7 = alloca ptr, align 8
  %8 = alloca ptr, align 8
  %9 = alloca i32, align 4
  store ptr %0, ptr %5, align 8, !tbaa !7
  store ptr %1, ptr %6, align 8, !tbaa !12
  store ptr %2, ptr %7, align 8, !tbaa !12
  call void @llvm.lifetime.start.p0(i64 8, ptr %8) #15
  %10 = load ptr, ptr %6, align 8, !tbaa !12
  %11 = load ptr, ptr %7, align 8, !tbaa !12
  %12 = call ptr @pm_encoding_find(ptr noundef %10, ptr noundef %11)
  store ptr %12, ptr %8, align 8, !tbaa !57
  %13 = load ptr, ptr %8, align 8, !tbaa !57
  %14 = icmp ne ptr %13, null
  br i1 %14, label %15, label %41

15:                                               ; preds = %3
  %16 = load ptr, ptr %5, align 8, !tbaa !7
  %17 = getelementptr inbounds nuw %struct.pm_parser, ptr %16, i32 0, i32 22
  %18 = load ptr, ptr %17, align 8, !tbaa !45
  %19 = load ptr, ptr %8, align 8, !tbaa !57
  %20 = icmp ne ptr %18, %19
  br i1 %20, label %21, label %35

21:                                               ; preds = %15
  %22 = load ptr, ptr %8, align 8, !tbaa !57
  %23 = load ptr, ptr %5, align 8, !tbaa !7
  %24 = getelementptr inbounds nuw %struct.pm_parser, ptr %23, i32 0, i32 22
  store ptr %22, ptr %24, align 8, !tbaa !45
  %25 = load ptr, ptr %5, align 8, !tbaa !7
  %26 = getelementptr inbounds nuw %struct.pm_parser, ptr %25, i32 0, i32 23
  %27 = load ptr, ptr %26, align 8, !tbaa !94
  %28 = icmp ne ptr %27, null
  br i1 %28, label %29, label %34

29:                                               ; preds = %21
  %30 = load ptr, ptr %5, align 8, !tbaa !7
  %31 = getelementptr inbounds nuw %struct.pm_parser, ptr %30, i32 0, i32 23
  %32 = load ptr, ptr %31, align 8, !tbaa !94
  %33 = load ptr, ptr %5, align 8, !tbaa !7
  call void %32(ptr noundef %33)
  br label %34

34:                                               ; preds = %29, %21
  br label %35

35:                                               ; preds = %34, %15
  %36 = load ptr, ptr %8, align 8, !tbaa !57
  %37 = icmp ne ptr %36, @pm_encodings
  %38 = load ptr, ptr %5, align 8, !tbaa !7
  %39 = getelementptr inbounds nuw %struct.pm_parser, ptr %38, i32 0, i32 42
  %40 = zext i1 %37 to i8
  store i8 %40, ptr %39, align 1, !tbaa !99
  store i1 true, ptr %4, align 1
  store i32 1, ptr %9, align 4
  br label %42

41:                                               ; preds = %3
  store i1 false, ptr %4, align 1
  store i32 1, ptr %9, align 4
  br label %42

42:                                               ; preds = %41, %35
  call void @llvm.lifetime.end.p0(i64 8, ptr %8) #15
  %43 = load i1, ptr %4, align 1
  ret i1 %43
}

; Function Attrs: nounwind sspstrong uwtable
define internal ptr @pm_strnstr(ptr noundef %0, ptr noundef %1, i64 noundef %2) #0 {
  %4 = alloca ptr, align 8
  %5 = alloca ptr, align 8
  %6 = alloca ptr, align 8
  %7 = alloca i64, align 8
  %8 = alloca i64, align 8
  %9 = alloca ptr, align 8
  %10 = alloca i32, align 4
  store ptr %0, ptr %5, align 8, !tbaa !12
  store ptr %1, ptr %6, align 8, !tbaa !12
  store i64 %2, ptr %7, align 8, !tbaa !14
  call void @llvm.lifetime.start.p0(i64 8, ptr %8) #15
  %11 = load ptr, ptr %6, align 8, !tbaa !12
  %12 = call i64 @strlen(ptr noundef %11) #17
  store i64 %12, ptr %8, align 8, !tbaa !14
  call void @llvm.lifetime.start.p0(i64 8, ptr %9) #15
  %13 = load ptr, ptr %5, align 8, !tbaa !12
  %14 = load i64, ptr %7, align 8, !tbaa !14
  %15 = getelementptr i8, ptr %13, i64 %14
  store ptr %15, ptr %9, align 8, !tbaa !12
  br label %16

16:                                               ; preds = %38, %3
  %17 = load ptr, ptr %5, align 8, !tbaa !12
  %18 = load ptr, ptr %9, align 8, !tbaa !12
  %19 = icmp ult ptr %17, %18
  br i1 %19, label %21, label %20

20:                                               ; preds = %16
  store i32 2, ptr %10, align 4
  br label %41

21:                                               ; preds = %16
  %22 = load ptr, ptr %5, align 8, !tbaa !12
  %23 = load i8, ptr %22, align 1, !tbaa !39
  %24 = sext i8 %23 to i32
  %25 = load ptr, ptr %6, align 8, !tbaa !12
  %26 = load i8, ptr %25, align 1, !tbaa !39
  %27 = sext i8 %26 to i32
  %28 = icmp eq i32 %24, %27
  br i1 %28, label %29, label %37

29:                                               ; preds = %21
  %30 = load ptr, ptr %5, align 8, !tbaa !12
  %31 = load ptr, ptr %6, align 8, !tbaa !12
  %32 = load i64, ptr %8, align 8, !tbaa !14
  %33 = call i32 @memcmp(ptr noundef %30, ptr noundef %31, i64 noundef %32) #17
  %34 = icmp eq i32 %33, 0
  br i1 %34, label %35, label %37

35:                                               ; preds = %29
  %36 = load ptr, ptr %5, align 8, !tbaa !12
  store ptr %36, ptr %4, align 8
  store i32 1, ptr %10, align 4
  br label %41

37:                                               ; preds = %29, %21
  br label %38

38:                                               ; preds = %37
  %39 = load ptr, ptr %5, align 8, !tbaa !12
  %40 = getelementptr i8, ptr %39, i32 1
  store ptr %40, ptr %5, align 8, !tbaa !12
  br label %16, !llvm.loop !105

41:                                               ; preds = %35, %20
  call void @llvm.lifetime.end.p0(i64 8, ptr %9) #15
  %42 = load i32, ptr %10, align 4
  switch i32 %42, label %44 [
    i32 2, label %43
  ]

43:                                               ; preds = %41
  store ptr null, ptr %4, align 8
  store i32 1, ptr %10, align 4
  br label %44

44:                                               ; preds = %43, %41
  call void @llvm.lifetime.end.p0(i64 8, ptr %8) #15
  %45 = load ptr, ptr %4, align 8
  ret ptr %45
}

; Function Attrs: nounwind sspstrong uwtable
define internal void @pm_parser_init_shebang(ptr noundef %0, ptr noundef %1, ptr noundef %2, i64 noundef %3) #0 {
  %5 = alloca ptr, align 8
  %6 = alloca ptr, align 8
  %7 = alloca ptr, align 8
  %8 = alloca i64, align 8
  %9 = alloca ptr, align 8
  %10 = alloca i32, align 4
  %11 = alloca %struct.pm_options, align 8
  %12 = alloca i64, align 8
  %13 = alloca ptr, align 8
  store ptr %0, ptr %5, align 8, !tbaa !7
  store ptr %1, ptr %6, align 8, !tbaa !16
  store ptr %2, ptr %7, align 8, !tbaa !12
  store i64 %3, ptr %8, align 8, !tbaa !14
  call void @llvm.lifetime.start.p0(i64 8, ptr %9) #15
  %14 = load ptr, ptr %7, align 8, !tbaa !12
  %15 = load i64, ptr %8, align 8, !tbaa !14
  %16 = call ptr @pm_strnstr(ptr noundef %14, ptr noundef @.str.15, i64 noundef %15)
  store ptr %16, ptr %9, align 8, !tbaa !12
  %17 = load ptr, ptr %9, align 8, !tbaa !12
  %18 = icmp eq ptr %17, null
  br i1 %18, label %19, label %20

19:                                               ; preds = %4
  store i32 1, ptr %10, align 4
  br label %59

20:                                               ; preds = %4
  call void @llvm.lifetime.start.p0(i64 104, ptr %11) #15
  %21 = load ptr, ptr %6, align 8, !tbaa !16
  call void @llvm.memcpy.p0.p0.i64(ptr align 8 %11, ptr align 8 %21, i64 104, i1 false), !tbaa.struct !106
  %22 = load ptr, ptr %6, align 8, !tbaa !16
  %23 = getelementptr inbounds nuw %struct.pm_options, ptr %22, i32 0, i32 0
  %24 = load ptr, ptr %23, align 8, !tbaa !96
  %25 = load ptr, ptr %9, align 8, !tbaa !12
  %26 = getelementptr i8, ptr %25, i64 1
  %27 = load i64, ptr %8, align 8, !tbaa !14
  %28 = load ptr, ptr %9, align 8, !tbaa !12
  %29 = load ptr, ptr %7, align 8, !tbaa !12
  %30 = ptrtoint ptr %28 to i64
  %31 = ptrtoint ptr %29 to i64
  %32 = sub i64 %30, %31
  %33 = sub i64 %27, %32
  %34 = sub i64 %33, 1
  %35 = load ptr, ptr %6, align 8, !tbaa !16
  %36 = getelementptr inbounds nuw %struct.pm_options, ptr %35, i32 0, i32 1
  %37 = load ptr, ptr %36, align 8, !tbaa !107
  call void %24(ptr noundef %11, ptr noundef %26, i64 noundef %34, ptr noundef %37)
  call void @llvm.lifetime.start.p0(i64 8, ptr %12) #15
  %38 = getelementptr inbounds nuw %struct.pm_options, ptr %11, i32 0, i32 4
  %39 = call i64 @pm_string_length(ptr noundef %38)
  store i64 %39, ptr %12, align 8, !tbaa !14
  %40 = icmp ugt i64 %39, 0
  br i1 %40, label %41, label %50

41:                                               ; preds = %20
  call void @llvm.lifetime.start.p0(i64 8, ptr %13) #15
  %42 = getelementptr inbounds nuw %struct.pm_options, ptr %11, i32 0, i32 4
  %43 = call ptr @pm_string_source(ptr noundef %42)
  store ptr %43, ptr %13, align 8, !tbaa !12
  %44 = load ptr, ptr %5, align 8, !tbaa !7
  %45 = load ptr, ptr %13, align 8, !tbaa !12
  %46 = load ptr, ptr %13, align 8, !tbaa !12
  %47 = load i64, ptr %12, align 8, !tbaa !14
  %48 = getelementptr i8, ptr %46, i64 %47
  %49 = call zeroext i1 @parser_lex_magic_comment_encoding_value(ptr noundef %44, ptr noundef %45, ptr noundef %48)
  call void @llvm.lifetime.end.p0(i64 8, ptr %13) #15
  br label %50

50:                                               ; preds = %41, %20
  %51 = getelementptr inbounds nuw %struct.pm_options, ptr %11, i32 0, i32 8
  %52 = load i8, ptr %51, align 4, !tbaa !72
  %53 = load ptr, ptr %5, align 8, !tbaa !7
  %54 = getelementptr inbounds nuw %struct.pm_parser, ptr %53, i32 0, i32 35
  store i8 %52, ptr %54, align 4, !tbaa !73
  %55 = getelementptr inbounds nuw %struct.pm_options, ptr %11, i32 0, i32 9
  %56 = load i8, ptr %55, align 1, !tbaa !70
  %57 = load ptr, ptr %5, align 8, !tbaa !7
  %58 = getelementptr inbounds nuw %struct.pm_parser, ptr %57, i32 0, i32 36
  store i8 %56, ptr %58, align 1, !tbaa !71
  call void @llvm.lifetime.end.p0(i64 8, ptr %12) #15
  call void @llvm.lifetime.end.p0(i64 104, ptr %11) #15
  store i32 0, ptr %10, align 4
  br label %59

59:                                               ; preds = %50, %19
  call void @llvm.lifetime.end.p0(i64 8, ptr %9) #15
  %60 = load i32, ptr %10, align 4
  switch i32 %60, label %62 [
    i32 0, label %61
    i32 1, label %61
  ]

61:                                               ; preds = %59, %59
  ret void

62:                                               ; preds = %59
  unreachable
}