; Function Attrs: nounwind sspstrong uwtable
define internal fastcc void @pm_parser_init_shebang(ptr noundef %0, ptr noundef nonnull readonly captures(none) %1, ptr noundef nonnull %2, i64 noundef %3) unnamed_addr #1 {
  %5 = alloca %struct.pm_options, align 8
  %6 = getelementptr i8, ptr %2, i64 %3
  %.not15.i = icmp ult ptr %2, %6
  br i1 %.not15.i, label %.lr.ph.i, label %pm_strnstr.exit.thread

.lr.ph.i:                                         ; preds = %4, %11
  %.01416.i = phi ptr [ %12, %11 ], [ %2, %4 ]
  %7 = load i8, ptr %.01416.i, align 1, !tbaa !65
  %8 = icmp eq i8 %7, 32
  br i1 %8, label %9, label %11

9:                                                ; preds = %.lr.ph.i
  %bcmp.i = tail call i32 @bcmp(ptr noundef nonnull dereferenceable(2) %.01416.i, ptr noundef nonnull dereferenceable(2) @.str.15, i64 2)
  %10 = icmp eq i32 %bcmp.i, 0
  br i1 %10, label %pm_strnstr.exit, label %11

11:                                               ; preds = %9, %.lr.ph.i
  %12 = getelementptr i8, ptr %.01416.i, i64 1
  %exitcond.not.i = icmp eq ptr %12, %6
  br i1 %exitcond.not.i, label %pm_strnstr.exit.thread, label %.lr.ph.i, !llvm.loop !77

pm_strnstr.exit:                                  ; preds = %9
  call void @llvm.lifetime.start.p0(i64 104, ptr nonnull %5) #31
  call void @llvm.memcpy.p0.p0.i64(ptr noundef nonnull align 8 dereferenceable(104) %5, ptr noundef nonnull align 8 dereferenceable(104) %1, i64 104, i1 false), !tbaa.struct !80
  %13 = load ptr, ptr %1, align 8, !tbaa !79
  %14 = getelementptr i8, ptr %.01416.i, i64 1
  %15 = ptrtoint ptr %.01416.i to i64
  %16 = ptrtoint ptr %2 to i64
  %.neg = add i64 %16, -1
  %17 = add i64 %.neg, %3
  %18 = sub i64 %17, %15
  %19 = getelementptr inbounds nuw i8, ptr %1, i64 8
  %20 = load ptr, ptr %19, align 8, !tbaa !82
  call void %13(ptr noundef nonnull %5, ptr noundef %14, i64 noundef %18, ptr noundef %20) #31
  %21 = getelementptr inbounds nuw i8, ptr %5, i64 48
  %22 = call i64 @pm_string_length(ptr noundef nonnull %21) #31
  %.not = icmp eq i64 %22, 0
  br i1 %.not, label %parser_lex_magic_comment_encoding_value.exit, label %23

23:                                               ; preds = %pm_strnstr.exit
  %24 = call ptr @pm_string_source(ptr noundef nonnull %21) #31
  %25 = getelementptr i8, ptr %24, i64 %22
  %26 = call ptr @pm_encoding_find(ptr noundef %24, ptr noundef %25) #31
  %.not.i.not = icmp eq ptr %26, null
  br i1 %.not.i.not, label %parser_lex_magic_comment_encoding_value.exit, label %27

27:                                               ; preds = %23
  %28 = getelementptr inbounds nuw i8, ptr %0, i64 520
  %29 = load ptr, ptr %28, align 8, !tbaa !40
  %.not15.i16 = icmp eq ptr %29, %26
  br i1 %.not15.i16, label %34, label %30

30:                                               ; preds = %27
  store ptr %26, ptr %28, align 8, !tbaa !40
  %31 = getelementptr inbounds nuw i8, ptr %0, i64 528
  %32 = load ptr, ptr %31, align 8, !tbaa !41
  %.not16.i = icmp eq ptr %32, null
  br i1 %.not16.i, label %34, label %33

33:                                               ; preds = %30
  call void %32(ptr noundef nonnull %0) #31
  br label %34

34:                                               ; preds = %33, %30, %27
  %35 = icmp ne ptr %26, @pm_encodings
  %36 = getelementptr inbounds nuw i8, ptr %0, i64 699
  %37 = zext i1 %35 to i8
  store i8 %37, ptr %36, align 1, !tbaa !42
  br label %parser_lex_magic_comment_encoding_value.exit

parser_lex_magic_comment_encoding_value.exit:     ; preds = %34, %23, %pm_strnstr.exit
  %38 = getelementptr inbounds nuw i8, ptr %5, i64 92
  %39 = load i8, ptr %38, align 4, !tbaa !49
  %40 = getelementptr inbounds nuw i8, ptr %0, i64 692
  store i8 %39, ptr %40, align 4, !tbaa !50
  %41 = getelementptr inbounds nuw i8, ptr %5, i64 93
  %42 = load i8, ptr %41, align 1, !tbaa !47
  %43 = getelementptr inbounds nuw i8, ptr %0, i64 693
  store i8 %42, ptr %43, align 1, !tbaa !48
  call void @llvm.lifetime.end.p0(i64 104, ptr nonnull %5) #31
  br label %pm_strnstr.exit.thread

pm_strnstr.exit.thread:                           ; preds = %11, %4, %parser_lex_magic_comment_encoding_value.exit
  ret void
}